target datalayout = "e-m:e-p270:32:32-p271:32:32-p272:64:64-i64:64-i128:128-f80:128-n8:16:32:64-S128"
target triple = "x86_64-pc-linux-gnu"

%struct.keypair_context_s = type { [80 x i8], [80 x i8], [80 x i8], [8 x i8], [8 x i8], i8, i8 }

@keypair_context = internal global %struct.keypair_context_s zeroinitializer, align 1

; Function Attrs: alwaysinline nounwind
define internal ptr @memcpy.inline(ptr noalias %0, ptr noalias %1, i64 %2) #1 {
  %4 = alloca ptr, align 8
  %5 = alloca ptr, align 8
  %6 = alloca i64, align 8
  store ptr %0, ptr %4, align 8
  store ptr %1, ptr %5, align 8
  store i64 %2, ptr %6, align 8
  %7 = load ptr, ptr %4, align 8
  %8 = load ptr, ptr %5, align 8
  %9 = load i64, ptr %6, align 8
  %10 = load ptr, ptr %4, align 8
  %11 = call i64 @llvm.objectsize.i64.p0(ptr %10, i1 false, i1 true, i1 true)
  %12 = call ptr @__memcpy_chk(ptr noundef %7, ptr noundef %8, i64 noundef %9, i64 noundef %11) #9
  ret ptr %12
}

; Function Attrs: alwaysinline nounwind
define internal ptr @memset.inline(ptr %0, i32 %1, i64 %2) #1 {
  %4 = alloca ptr, align 8
  %5 = alloca i32, align 4
  %6 = alloca i64, align 8
  store ptr %0, ptr %4, align 8
  store i32 %1, ptr %5, align 4
  store i64 %2, ptr %6, align 8
  %7 = load ptr, ptr %4, align 8
  %8 = load i32, ptr %5, align 4
  %9 = load i64, ptr %6, align 8
  %10 = load ptr, ptr %4, align 8
  %11 = call i64 @llvm.objectsize.i64.p0(ptr %10, i1 false, i1 true, i1 true)
  %12 = call ptr @__memset_chk(ptr noundef %7, i32 noundef %8, i64 noundef %9, i64 noundef %11) #9
  ret ptr %12
}

; Function Attrs: nounwind null_pointer_is_valid sspstrong uwtable
define hidden void @keypair_context_init(ptr noundef %0, ptr noundef %1, i8 noundef zeroext %2) #0 {
  %4 = alloca ptr, align 8
  %5 = alloca ptr, align 8
  %6 = alloca i8, align 1
  store ptr %0, ptr %4, align 8
  store ptr %1, ptr %5, align 8
  store i8 %2, ptr %6, align 1
  %7 = load ptr, ptr %4, align 8
  %8 = icmp eq ptr %7, null
  br i1 %8, label %12, label %9

9:                                                ; preds = %3
  %10 = load ptr, ptr %5, align 8
  %11 = icmp eq ptr %10, null
  br i1 %11, label %12, label %13

12:                                               ; preds = %9, %3
  br label %20

13:                                               ; preds = %9
  %14 = call ptr @memset.inline(ptr noundef @keypair_context, i32 noundef 0, i64 noundef 258) #9
  %15 = load ptr, ptr %4, align 8
  %16 = call ptr @memcpy.inline(ptr noundef getelementptr inbounds nuw (%struct.keypair_context_s, ptr @keypair_context, i32 0, i32 3), ptr noundef %15, i64 noundef 8) #9
  %17 = load ptr, ptr %5, align 8
  %18 = call ptr @memcpy.inline(ptr noundef getelementptr inbounds nuw (%struct.keypair_context_s, ptr @keypair_context, i32 0, i32 4), ptr noundef %17, i64 noundef 8) #9
  %19 = load i8, ptr %6, align 1
  store i8 %19, ptr getelementptr inbounds nuw (%struct.keypair_context_s, ptr @keypair_context, i32 0, i32 5), align 1
  br label %20

20:                                               ; preds = %13, %12
  ret void
}