; Function Attrs: mustprogress nofree norecurse nosync nounwind null_pointer_is_valid sspstrong willreturn memory(write, argmem: read, inaccessiblemem: none) uwtable
define hidden void @keypair_context_init(ptr noundef readonly captures(address_is_null) %0, ptr noundef readonly captures(address_is_null) %1, i8 noundef zeroext %2) local_unnamed_addr #0 {
  %4 = icmp eq ptr %0, null
  %5 = icmp eq ptr %1, null
  %or.cond = or i1 %4, %5
  br i1 %or.cond, label %9, label %6

6:                                                ; preds = %3
  tail call void @llvm.memset.p0.i64(ptr noundef nonnull align 1 dereferenceable(258) @keypair_context, i8 noundef 0, i64 noundef 258, i1 noundef false) #17
  %7 = load i64, ptr %0, align 1
  store i64 %7, ptr getelementptr inbounds nuw (i8, ptr @keypair_context, i64 240), align 1
  %8 = load i64, ptr %1, align 1
  store i64 %8, ptr getelementptr inbounds nuw (i8, ptr @keypair_context, i64 248), align 1
  store i8 %2, ptr getelementptr inbounds nuw (i8, ptr @keypair_context, i64 256), align 1
  br label %9

9:                                                ; preds = %3, %6
  ret void
}